target datalayout = "e-m:e-p270:32:32-p271:32:32-p272:64:64-i64:64-i128:128-f80:128-n8:16:32:64-S128"
target triple = "x86_64-pc-linux-gnu"

%struct.NamedLWLockTrancheRequest = type { [64 x i8], i32 }

@NamedLWLockTrancheRequests = dso_local global i32 0, align 4
@NamedLWLockTrancheRequestArray = internal global ptr null, align 8
@.str.1 = private unnamed_addr constant [9 x i8] c"lwlock.c\00", align 1
@TopMemoryContext = external global ptr, align 8
@process_shmem_requests_in_progress = external global i8, align 1
@.str.2 = private unnamed_addr constant [61 x i8] c"cannot request additional LWLocks outside shmem_request_hook\00", align 1
@__func__.RequestNamedLWLockTranche = private unnamed_addr constant [26 x i8] c"RequestNamedLWLockTranche\00", align 1
@NamedLWLockTrancheRequestsAllocated = internal global i32 0, align 4

; Function Attrs: inlinehint nounwind uwtable
define internal i32 @pg_leftmost_one_pos32(i32 noundef %0) #5 {
  %2 = alloca i32, align 4
  store i32 %0, ptr %2, align 4
  %3 = load i32, ptr %2, align 4
  %4 = call i32 @llvm.ctlz.i32(i32 %3, i1 true)
  %5 = sub i32 31, %4
  ret i32 %5
}

; Function Attrs: inlinehint nounwind uwtable
define internal i32 @pg_nextpower2_32(i32 noundef %0) #5 {
  %2 = alloca i32, align 4
  %3 = alloca i32, align 4
  store i32 %0, ptr %3, align 4
  %4 = load i32, ptr %3, align 4
  %5 = load i32, ptr %3, align 4
  %6 = sub i32 %5, 1
  %7 = and i32 %4, %6
  %8 = icmp eq i32 %7, 0
  br i1 %8, label %9, label %11

9:                                                ; preds = %1
  %10 = load i32, ptr %3, align 4
  store i32 %10, ptr %2, align 4
  br label %16

11:                                               ; preds = %1
  %12 = load i32, ptr %3, align 4
  %13 = call i32 @pg_leftmost_one_pos32(i32 noundef %12)
  %14 = add i32 %13, 1
  %15 = shl i32 1, %14
  store i32 %15, ptr %2, align 4
  br label %16

16:                                               ; preds = %11, %9
  %17 = load i32, ptr %2, align 4
  ret i32 %17
}

; Function Attrs: nounwind uwtable
define dso_local void @RequestNamedLWLockTranche(ptr noundef %0, i32 noundef %1) #0 {
  %3 = alloca ptr, align 8
  %4 = alloca i32, align 4
  %5 = alloca ptr, align 8
  %6 = alloca i32, align 4
  store ptr %0, ptr %3, align 8
  store i32 %1, ptr %4, align 4
  call void @llvm.lifetime.start.p0(i64 8, ptr %5) #9
  %7 = load i8, ptr @process_shmem_requests_in_progress, align 1, !range !7, !noundef !8
  %8 = trunc i8 %7 to i1
  br i1 %8, label %20, label %9

9:                                                ; preds = %2
  br label %10

10:                                               ; preds = %9
  br i1 true, label %11, label %13

11:                                               ; preds = %10
  %12 = call zeroext i1 @errstart_cold(i32 noundef 22, ptr noundef null) #11
  br i1 %12, label %15, label %17

13:                                               ; preds = %10
  %14 = call zeroext i1 @errstart(i32 noundef 22, ptr noundef null)
  br i1 %14, label %15, label %17

15:                                               ; preds = %13, %11
  %16 = call i32 (ptr, ...) @errmsg_internal(ptr noundef @.str.2)
  call void @errfinish(ptr noundef @.str.1, i32 noundef 675, ptr noundef @__func__.RequestNamedLWLockTranche)
  br label %17

17:                                               ; preds = %15, %13, %11
  unreachable

18:                                               ; No predecessors!
  br label %19

19:                                               ; preds = %18
  br label %20

20:                                               ; preds = %19, %2
  %21 = load ptr, ptr @NamedLWLockTrancheRequestArray, align 8
  %22 = icmp eq ptr %21, null
  br i1 %22, label %23, label %29

23:                                               ; preds = %20
  store i32 16, ptr @NamedLWLockTrancheRequestsAllocated, align 4
  %24 = load ptr, ptr @TopMemoryContext, align 8
  %25 = load i32, ptr @NamedLWLockTrancheRequestsAllocated, align 4
  %26 = sext i32 %25 to i64
  %27 = mul i64 %26, 68
  %28 = call ptr @MemoryContextAlloc(ptr noundef %24, i64 noundef %27)
  store ptr %28, ptr @NamedLWLockTrancheRequestArray, align 8
  br label %29

29:                                               ; preds = %23, %20
  %30 = load i32, ptr @NamedLWLockTrancheRequests, align 4
  %31 = load i32, ptr @NamedLWLockTrancheRequestsAllocated, align 4
  %32 = icmp sge i32 %30, %31
  br i1 %32, label %33, label %43

33:                                               ; preds = %29
  call void @llvm.lifetime.start.p0(i64 4, ptr %6) #9
  %34 = load i32, ptr @NamedLWLockTrancheRequests, align 4
  %35 = add i32 %34, 1
  %36 = call i32 @pg_nextpower2_32(i32 noundef %35)
  store i32 %36, ptr %6, align 4
  %37 = load ptr, ptr @NamedLWLockTrancheRequestArray, align 8
  %38 = load i32, ptr %6, align 4
  %39 = sext i32 %38 to i64
  %40 = mul i64 %39, 68
  %41 = call ptr @repalloc(ptr noundef %37, i64 noundef %40)
  store ptr %41, ptr @NamedLWLockTrancheRequestArray, align 8
  %42 = load i32, ptr %6, align 4
  store i32 %42, ptr @NamedLWLockTrancheRequestsAllocated, align 4
  call void @llvm.lifetime.end.p0(i64 4, ptr %6) #9
  br label %43

43:                                               ; preds = %33, %29
  %44 = load ptr, ptr @NamedLWLockTrancheRequestArray, align 8
  %45 = load i32, ptr @NamedLWLockTrancheRequests, align 4
  %46 = sext i32 %45 to i64
  %47 = getelementptr inbounds %struct.NamedLWLockTrancheRequest, ptr %44, i64 %46
  store ptr %47, ptr %5, align 8
  %48 = load ptr, ptr %5, align 8
  %49 = getelementptr inbounds nuw %struct.NamedLWLockTrancheRequest, ptr %48, i32 0, i32 0
  %50 = getelementptr inbounds [64 x i8], ptr %49, i64 0, i64 0
  %51 = load ptr, ptr %3, align 8
  %52 = call i64 @strlcpy(ptr noundef %50, ptr noundef %51, i64 noundef 64)
  %53 = load i32, ptr %4, align 4
  %54 = load ptr, ptr %5, align 8
  %55 = getelementptr inbounds nuw %struct.NamedLWLockTrancheRequest, ptr %54, i32 0, i32 1
  store i32 %53, ptr %55, align 4
  %56 = load i32, ptr @NamedLWLockTrancheRequests, align 4
  %57 = add i32 %56, 1
  store i32 %57, ptr @NamedLWLockTrancheRequests, align 4
  call void @llvm.lifetime.end.p0(i64 8, ptr %5) #9
  ret void
}