; Function Attrs: nounwind uwtable
define dso_local void @RequestNamedLWLockTranche(ptr noundef %0, i32 noundef %1) local_unnamed_addr #0 {
  %3 = load i8, ptr @process_shmem_requests_in_progress, align 1, !range !7, !noundef !8
  %4 = trunc nuw i8 %3 to i1
  br i1 %4, label %8, label %5

5:                                                ; preds = %2
  %6 = tail call zeroext i1 @errstart_cold(i32 noundef 22, ptr noundef null) #17
  tail call void @llvm.assume(i1 %6)
  %7 = tail call i32 (ptr, ...) @errmsg_internal(ptr noundef nonnull @.str.2) #15
  tail call void @errfinish(ptr noundef nonnull @.str.1, i32 noundef 675, ptr noundef nonnull @__func__.RequestNamedLWLockTranche) #15
  unreachable

8:                                                ; preds = %2
  %9 = load ptr, ptr @NamedLWLockTrancheRequestArray, align 8
  %10 = icmp eq ptr %9, null
  br i1 %10, label %11, label %14

11:                                               ; preds = %8
  store i32 16, ptr @NamedLWLockTrancheRequestsAllocated, align 4
  %12 = load ptr, ptr @TopMemoryContext, align 8
  %13 = tail call ptr @MemoryContextAlloc(ptr noundef %12, i64 noundef 1088) #15
  store ptr %13, ptr @NamedLWLockTrancheRequestArray, align 8
  br label %14

14:                                               ; preds = %11, %8
  %15 = phi ptr [ %13, %11 ], [ %9, %8 ]
  %16 = load i32, ptr @NamedLWLockTrancheRequests, align 4
  %17 = load i32, ptr @NamedLWLockTrancheRequestsAllocated, align 4
  %.not = icmp slt i32 %16, %17
  br i1 %.not, label %28, label %18

18:                                               ; preds = %14
  %19 = add i32 %16, 1
  %20 = tail call range(i32 0, 33) i32 @llvm.ctpop.i32(i32 %19)
  %21 = icmp samesign ult i32 %20, 2
  %22 = tail call range(i32 0, 33) i32 @llvm.ctlz.i32(i32 %19, i1 true)
  %23 = xor i32 %22, 31
  %24 = shl nuw i32 2, %23
  %.0.i = select i1 %21, i32 %19, i32 %24
  %25 = sext i32 %.0.i to i64
  %26 = mul nsw i64 %25, 68
  %27 = tail call ptr @repalloc(ptr noundef %15, i64 noundef %26) #15
  store ptr %27, ptr @NamedLWLockTrancheRequestArray, align 8
  store i32 %.0.i, ptr @NamedLWLockTrancheRequestsAllocated, align 4
  %.pre = load i32, ptr @NamedLWLockTrancheRequests, align 4
  br label %28

28:                                               ; preds = %18, %14
  %29 = phi i32 [ %.pre, %18 ], [ %16, %14 ]
  %30 = phi ptr [ %27, %18 ], [ %15, %14 ]
  %31 = sext i32 %29 to i64
  %32 = getelementptr inbounds %struct.NamedLWLockTrancheRequest, ptr %30, i64 %31
  %33 = tail call i64 @strlcpy(ptr noundef nonnull dereferenceable(1) %32, ptr noundef nonnull dereferenceable(1) %0, i64 noundef 64) #15
  %34 = getelementptr inbounds nuw i8, ptr %32, i64 64
  store i32 %1, ptr %34, align 4
  %35 = load i32, ptr @NamedLWLockTrancheRequests, align 4
  %36 = add i32 %35, 1
  store i32 %36, ptr @NamedLWLockTrancheRequests, align 4
  ret void
}